target datalayout = "e-m:e-p270:32:32-p271:32:32-p272:64:64-i64:64-i128:128-f80:128-n8:16:32:64-S128"
target triple = "x86_64-pc-linux-gnu"

@hf_nas_eps_spare_bits = internal global i32 0, align 4
@de_emm_ue_net_cap.oct3_flags = internal constant [9 x ptr] [ptr @hf_nas_eps_emm_eea0, ptr @hf_nas_eps_emm_128eea1, ptr @hf_nas_eps_emm_128eea2, ptr @hf_nas_eps_emm_eea3, ptr @hf_nas_eps_emm_eea4, ptr @hf_nas_eps_emm_eea5, ptr @hf_nas_eps_emm_eea6, ptr @hf_nas_eps_emm_eea7, ptr null], align 16
@de_emm_ue_net_cap.oct4_flags = internal constant [9 x ptr] [ptr @hf_nas_eps_emm_eia0, ptr @hf_nas_eps_emm_128eia1, ptr @hf_nas_eps_emm_128eia2, ptr @hf_nas_eps_emm_eia3, ptr @hf_nas_eps_emm_eia4, ptr @hf_nas_eps_emm_eia5, ptr @hf_nas_eps_emm_eia6, ptr @hf_nas_eps_emm_eps_upip, ptr null], align 16
@de_emm_ue_net_cap.oct5_flags = internal constant [9 x ptr] [ptr @hf_nas_eps_emm_uea0, ptr @hf_nas_eps_emm_uea1, ptr @hf_nas_eps_emm_uea2, ptr @hf_nas_eps_emm_uea3, ptr @hf_nas_eps_emm_uea4, ptr @hf_nas_eps_emm_uea5, ptr @hf_nas_eps_emm_uea6, ptr @hf_nas_eps_emm_uea7, ptr null], align 16
@de_emm_ue_net_cap.oct6_flags = internal constant [9 x ptr] [ptr @hf_nas_eps_emm_ucs2_supp, ptr @hf_nas_eps_emm_uia1, ptr @hf_nas_eps_emm_uia2, ptr @hf_nas_eps_emm_uia3, ptr @hf_nas_eps_emm_uia4, ptr @hf_nas_eps_emm_uia5, ptr @hf_nas_eps_emm_uia6, ptr @hf_nas_eps_emm_uia7, ptr null], align 16
@de_emm_ue_net_cap.oct11_flags = internal constant [5 x ptr] [ptr @hf_nas_eps_rclin_cap, ptr @hf_nas_eps_edc_cap, ptr @hf_nas_eps_ptcc_cap, ptr @hf_nas_eps_pr_cap, ptr null], align 16

; Function Attrs: null_pointer_is_valid sspstrong uwtable
define hidden zeroext i16 @de_emm_ue_net_cap(ptr noundef %0, ptr noundef %1, ptr noundef %2, i32 noundef %3, i32 noundef %4, ptr noundef %5, i32 noundef %6) #1 {
  %8 = alloca i16, align 2
  %9 = alloca ptr, align 8
  %10 = alloca ptr, align 8
  %11 = alloca ptr, align 8
  %12 = alloca i32, align 4
  %13 = alloca i32, align 4
  %14 = alloca ptr, align 8
  %15 = alloca i32, align 4
  %16 = alloca i32, align 4
  %17 = alloca i32, align 4
  store ptr %0, ptr %9, align 8
  store ptr %1, ptr %10, align 8
  store ptr %2, ptr %11, align 8
  store i32 %3, ptr %12, align 4
  store i32 %4, ptr %13, align 4
  store ptr %5, ptr %14, align 8
  store i32 %6, ptr %15, align 4
  call void @llvm.lifetime.start.p0(i64 4, ptr %16) #10
  %18 = load i32, ptr %12, align 4
  store i32 %18, ptr %16, align 4
  %19 = load ptr, ptr %10, align 8
  %20 = load ptr, ptr %9, align 8
  %21 = load i32, ptr %16, align 4
  call void @proto_tree_add_bitmask_list(ptr noundef %19, ptr noundef %20, i32 noundef %21, i32 noundef 1, ptr noundef @de_emm_ue_net_cap.oct3_flags, i32 noundef 0)
  %22 = load i32, ptr %16, align 4
  %23 = add i32 %22, 1
  store i32 %23, ptr %16, align 4
  %24 = load ptr, ptr %10, align 8
  %25 = load ptr, ptr %9, align 8
  %26 = load i32, ptr %16, align 4
  call void @proto_tree_add_bitmask_list(ptr noundef %24, ptr noundef %25, i32 noundef %26, i32 noundef 1, ptr noundef @de_emm_ue_net_cap.oct4_flags, i32 noundef 0)
  %27 = load i32, ptr %16, align 4
  %28 = add i32 %27, 1
  store i32 %28, ptr %16, align 4
  %29 = load i32, ptr %16, align 4
  %30 = load i32, ptr %12, align 4
  %31 = sub i32 %29, %30
  %32 = load i32, ptr %13, align 4
  %33 = icmp uge i32 %31, %32
  br i1 %33, label %34, label %37

34:                                               ; preds = %7
  %35 = load i32, ptr %13, align 4
  %36 = trunc i32 %35 to i16
  store i16 %36, ptr %8, align 2
  store i32 1, ptr %17, align 4
  br label %151

37:                                               ; preds = %7
  %38 = load ptr, ptr %10, align 8
  %39 = load ptr, ptr %9, align 8
  %40 = load i32, ptr %16, align 4
  call void @proto_tree_add_bitmask_list(ptr noundef %38, ptr noundef %39, i32 noundef %40, i32 noundef 1, ptr noundef @de_emm_ue_net_cap.oct5_flags, i32 noundef 0)
  %41 = load i32, ptr %16, align 4
  %42 = add i32 %41, 1
  store i32 %42, ptr %16, align 4
  %43 = load i32, ptr %16, align 4
  %44 = load i32, ptr %12, align 4
  %45 = sub i32 %43, %44
  %46 = load i32, ptr %13, align 4
  %47 = icmp uge i32 %45, %46
  br i1 %47, label %48, label %51

48:                                               ; preds = %37
  %49 = load i32, ptr %13, align 4
  %50 = trunc i32 %49 to i16
  store i16 %50, ptr %8, align 2
  store i32 1, ptr %17, align 4
  br label %151

51:                                               ; preds = %37
  %52 = load ptr, ptr %10, align 8
  %53 = load ptr, ptr %9, align 8
  %54 = load i32, ptr %16, align 4
  call void @proto_tree_add_bitmask_list(ptr noundef %52, ptr noundef %53, i32 noundef %54, i32 noundef 1, ptr noundef @de_emm_ue_net_cap.oct6_flags, i32 noundef 0)
  %55 = load i32, ptr %16, align 4
  %56 = add i32 %55, 1
  store i32 %56, ptr %16, align 4
  %57 = load i32, ptr %16, align 4
  %58 = load i32, ptr %12, align 4
  %59 = sub i32 %57, %58
  %60 = load i32, ptr %13, align 4
  %61 = icmp uge i32 %59, %60
  br i1 %61, label %62, label %65

62:                                               ; preds = %51
  %63 = load i32, ptr %13, align 4
  %64 = trunc i32 %63 to i16
  store i16 %64, ptr %8, align 2
  store i32 1, ptr %17, align 4
  br label %151

65:                                               ; preds = %51
  %66 = load ptr, ptr %10, align 8
  %67 = load ptr, ptr %9, align 8
  %68 = load i32, ptr %16, align 4
  call void @proto_tree_add_bitmask_list(ptr noundef %66, ptr noundef %67, i32 noundef %68, i32 noundef 1, ptr noundef @de_emm_ue_net_cap.oct7_flags, i32 noundef 0)
  %69 = load i32, ptr %16, align 4
  %70 = add i32 %69, 1
  store i32 %70, ptr %16, align 4
  %71 = load i32, ptr %16, align 4
  %72 = load i32, ptr %12, align 4
  %73 = sub i32 %71, %72
  %74 = load i32, ptr %13, align 4
  %75 = icmp uge i32 %73, %74
  br i1 %75, label %76, label %79

76:                                               ; preds = %65
  %77 = load i32, ptr %13, align 4
  %78 = trunc i32 %77 to i16
  store i16 %78, ptr %8, align 2
  store i32 1, ptr %17, align 4
  br label %151

79:                                               ; preds = %65
  %80 = load ptr, ptr %10, align 8
  %81 = load ptr, ptr %9, align 8
  %82 = load i32, ptr %16, align 4
  call void @proto_tree_add_bitmask_list(ptr noundef %80, ptr noundef %81, i32 noundef %82, i32 noundef 1, ptr noundef @de_emm_ue_net_cap.oct8_flags, i32 noundef 0)
  %83 = load i32, ptr %16, align 4
  %84 = add i32 %83, 1
  store i32 %84, ptr %16, align 4
  %85 = load i32, ptr %16, align 4
  %86 = load i32, ptr %12, align 4
  %87 = sub i32 %85, %86
  %88 = load i32, ptr %13, align 4
  %89 = icmp uge i32 %87, %88
  br i1 %89, label %90, label %93

90:                                               ; preds = %79
  %91 = load i32, ptr %13, align 4
  %92 = trunc i32 %91 to i16
  store i16 %92, ptr %8, align 2
  store i32 1, ptr %17, align 4
  br label %151

93:                                               ; preds = %79
  %94 = load ptr, ptr %10, align 8
  %95 = load ptr, ptr %9, align 8
  %96 = load i32, ptr %16, align 4
  call void @proto_tree_add_bitmask_list(ptr noundef %94, ptr noundef %95, i32 noundef %96, i32 noundef 1, ptr noundef @de_emm_ue_net_cap.oct9_flags, i32 noundef 0)
  %97 = load i32, ptr %16, align 4
  %98 = add i32 %97, 1
  store i32 %98, ptr %16, align 4
  %99 = load i32, ptr %16, align 4
  %100 = load i32, ptr %12, align 4
  %101 = sub i32 %99, %100
  %102 = load i32, ptr %13, align 4
  %103 = icmp uge i32 %101, %102
  br i1 %103, label %104, label %107

104:                                              ; preds = %93
  %105 = load i32, ptr %13, align 4
  %106 = trunc i32 %105 to i16
  store i16 %106, ptr %8, align 2
  store i32 1, ptr %17, align 4
  br label %151

107:                                              ; preds = %93
  %108 = load ptr, ptr %10, align 8
  %109 = load ptr, ptr %9, align 8
  %110 = load i32, ptr %16, align 4
  call void @proto_tree_add_bitmask_list(ptr noundef %108, ptr noundef %109, i32 noundef %110, i32 noundef 1, ptr noundef @de_emm_ue_net_cap.oct10_flags, i32 noundef 0)
  %111 = load i32, ptr %16, align 4
  %112 = add i32 %111, 1
  store i32 %112, ptr %16, align 4
  %113 = load i32, ptr %16, align 4
  %114 = load i32, ptr %12, align 4
  %115 = sub i32 %113, %114
  %116 = load i32, ptr %13, align 4
  %117 = icmp uge i32 %115, %116
  br i1 %117, label %118, label %121

118:                                              ; preds = %107
  %119 = load i32, ptr %13, align 4
  %120 = trunc i32 %119 to i16
  store i16 %120, ptr %8, align 2
  store i32 1, ptr %17, align 4
  br label %151

121:                                              ; preds = %107
  %122 = load ptr, ptr %10, align 8
  %123 = load i32, ptr @hf_nas_eps_spare_bits, align 4
  %124 = load ptr, ptr %9, align 8
  %125 = load i32, ptr %16, align 4
  %126 = shl i32 %125, 3
  %127 = call ptr @proto_tree_add_bits_item(ptr noundef %122, i32 noundef %123, ptr noundef %124, i32 noundef %126, i32 noundef 4, i32 noundef 0)
  %128 = load ptr, ptr %10, align 8
  %129 = load ptr, ptr %9, align 8
  %130 = load i32, ptr %16, align 4
  call void @proto_tree_add_bitmask_list(ptr noundef %128, ptr noundef %129, i32 noundef %130, i32 noundef 1, ptr noundef @de_emm_ue_net_cap.oct11_flags, i32 noundef 0)
  %131 = load i32, ptr %16, align 4
  %132 = add i32 %131, 1
  store i32 %132, ptr %16, align 4
  br label %133

133:                                              ; preds = %139, %121
  %134 = load i32, ptr %16, align 4
  %135 = load i32, ptr %12, align 4
  %136 = sub i32 %134, %135
  %137 = load i32, ptr %13, align 4
  %138 = icmp ult i32 %136, %137
  br i1 %138, label %139, label %148

139:                                              ; preds = %133
  %140 = load ptr, ptr %10, align 8
  %141 = load i32, ptr @hf_nas_eps_spare_bits, align 4
  %142 = load ptr, ptr %9, align 8
  %143 = load i32, ptr %16, align 4
  %144 = shl i32 %143, 3
  %145 = call ptr @proto_tree_add_bits_item(ptr noundef %140, i32 noundef %141, ptr noundef %142, i32 noundef %144, i32 noundef 8, i32 noundef 0)
  %146 = load i32, ptr %16, align 4
  %147 = add i32 %146, 1
  store i32 %147, ptr %16, align 4
  br label %133, !llvm.loop !6

148:                                              ; preds = %133
  %149 = load i32, ptr %13, align 4
  %150 = trunc i32 %149 to i16
  store i16 %150, ptr %8, align 2
  store i32 1, ptr %17, align 4
  br label %151

151:                                              ; preds = %148, %118, %104, %90, %76, %62, %48, %34
  call void @llvm.lifetime.end.p0(i64 4, ptr %16) #10
  %152 = load i16, ptr %8, align 2
  ret i16 %152
}