; Function Attrs: null_pointer_is_valid sspstrong uwtable
define hidden zeroext i16 @de_emm_ue_net_cap(ptr noundef %0, ptr noundef %1, ptr readnone captures(none) %2, i32 noundef %3, i32 noundef %4, ptr readnone captures(none) %5, i32 %6) #1 {
  tail call void @proto_tree_add_bitmask_list(ptr noundef %1, ptr noundef %0, i32 noundef %3, i32 noundef 1, ptr noundef nonnull @de_emm_ue_net_cap.oct3_flags, i32 noundef 0)
  %8 = add i32 %3, 1
  tail call void @proto_tree_add_bitmask_list(ptr noundef %1, ptr noundef %0, i32 noundef %8, i32 noundef 1, ptr noundef nonnull @de_emm_ue_net_cap.oct4_flags, i32 noundef 0)
  %9 = icmp ult i32 %4, 3
  br i1 %9, label %10, label %12

10:                                               ; preds = %7
  %11 = trunc nuw nsw i32 %4 to i16
  br label %43

12:                                               ; preds = %7
  %13 = add i32 %3, 2
  tail call void @proto_tree_add_bitmask_list(ptr noundef %1, ptr noundef %0, i32 noundef %13, i32 noundef 1, ptr noundef nonnull @de_emm_ue_net_cap.oct5_flags, i32 noundef 0)
  %14 = icmp eq i32 %4, 3
  br i1 %14, label %43, label %15

15:                                               ; preds = %12
  %16 = add i32 %3, 3
  tail call void @proto_tree_add_bitmask_list(ptr noundef %1, ptr noundef %0, i32 noundef %16, i32 noundef 1, ptr noundef nonnull @de_emm_ue_net_cap.oct6_flags, i32 noundef 0)
  %17 = icmp ult i32 %4, 5
  br i1 %17, label %43, label %18

18:                                               ; preds = %15
  %19 = add i32 %3, 4
  tail call void @proto_tree_add_bitmask_list(ptr noundef %1, ptr noundef %0, i32 noundef %19, i32 noundef 1, ptr noundef nonnull @de_emm_ue_net_cap.oct7_flags, i32 noundef 0)
  %20 = icmp eq i32 %4, 5
  br i1 %20, label %43, label %21

21:                                               ; preds = %18
  %22 = add i32 %3, 5
  tail call void @proto_tree_add_bitmask_list(ptr noundef %1, ptr noundef %0, i32 noundef %22, i32 noundef 1, ptr noundef nonnull @de_emm_ue_net_cap.oct8_flags, i32 noundef 0)
  %23 = icmp ult i32 %4, 7
  br i1 %23, label %43, label %24

24:                                               ; preds = %21
  %25 = add i32 %3, 6
  tail call void @proto_tree_add_bitmask_list(ptr noundef %1, ptr noundef %0, i32 noundef %25, i32 noundef 1, ptr noundef nonnull @de_emm_ue_net_cap.oct9_flags, i32 noundef 0)
  %26 = icmp eq i32 %4, 7
  br i1 %26, label %43, label %27

27:                                               ; preds = %24
  %28 = add i32 %3, 7
  tail call void @proto_tree_add_bitmask_list(ptr noundef %1, ptr noundef %0, i32 noundef %28, i32 noundef 1, ptr noundef nonnull @de_emm_ue_net_cap.oct10_flags, i32 noundef 0)
  %29 = icmp ult i32 %4, 9
  br i1 %29, label %43, label %30

30:                                               ; preds = %27
  %31 = add i32 %3, 8
  %32 = load i32, ptr @hf_nas_eps_spare_bits, align 4
  %33 = shl i32 %31, 3
  %34 = tail call ptr @proto_tree_add_bits_item(ptr noundef %1, i32 noundef %32, ptr noundef %0, i32 noundef %33, i32 noundef 4, i32 noundef 0)
  tail call void @proto_tree_add_bitmask_list(ptr noundef %1, ptr noundef %0, i32 noundef %31, i32 noundef 1, ptr noundef nonnull @de_emm_ue_net_cap.oct11_flags, i32 noundef 0)
  %.not = icmp eq i32 %4, 9
  br i1 %.not, label %._crit_edge, label %.lr.ph.preheader

.lr.ph.preheader:                                 ; preds = %30
  %35 = add i32 %3, 9
  br label %.lr.ph

.lr.ph:                                           ; preds = %.lr.ph.preheader, %.lr.ph
  %.078 = phi i32 [ %39, %.lr.ph ], [ %35, %.lr.ph.preheader ]
  %36 = load i32, ptr @hf_nas_eps_spare_bits, align 4
  %37 = shl i32 %.078, 3
  %38 = tail call ptr @proto_tree_add_bits_item(ptr noundef %1, i32 noundef %36, ptr noundef %0, i32 noundef %37, i32 noundef 8, i32 noundef 0)
  %39 = add i32 %.078, 1
  %40 = sub i32 %39, %3
  %41 = icmp ult i32 %40, %4
  br i1 %41, label %.lr.ph, label %._crit_edge, !llvm.loop !6

._crit_edge:                                      ; preds = %.lr.ph, %30
  %42 = trunc i32 %4 to i16
  br label %43

43:                                               ; preds = %27, %21, %15, %24, %18, %12, %._crit_edge, %10
  %.076 = phi i16 [ %11, %10 ], [ %42, %._crit_edge ], [ 3, %12 ], [ 5, %18 ], [ 7, %24 ], [ 4, %15 ], [ 6, %21 ], [ 8, %27 ]
  ret i16 %.076
}